target datalayout = "e-m:e-p270:32:32-p271:32:32-p272:64:64-i64:64-i128:128-f80:128-n8:16:32:64-S128"
target triple = "x86_64-pc-linux-gnu"

%struct.Mfs_Man_t_ = type { ptr, ptr, ptr, ptr, i32, ptr, ptr, ptr, ptr, ptr, ptr, ptr, ptr, i32, i32, i32, i32, ptr, ptr, i32, i32, i32, ptr, ptr, ptr, ptr, ptr, ptr, ptr, i32, i32, ptr, i32, i32, i32, [128 x i32], i32, i32, i32, i32, i32, i32, i32, i32, i32, i32, i32, i32, i32, i32, double, i32, i32, i32, i32, float, float, i64, i64, i64, i64, i64, i64, i64, i64 }
%struct.Cnf_Dat_t_ = type { ptr, i32, i32, i32, ptr, ptr, ptr, ptr, ptr, ptr }
%struct.Mfs_Par_t_ = type { i32, i32, i32, i32, i32, i32, i32, i32, i32, i32, i32, i32, i32, i32, i32, i32, i32 }
%struct.Vec_Int_t_ = type { i32, i32, ptr }

; Function Attrs: inlinehint nounwind uwtable
define internal i32 @Vec_IntEntry(ptr noundef %0, i32 noundef %1) #2 {
  %3 = alloca ptr, align 8
  %4 = alloca i32, align 4
  store ptr %0, ptr %3, align 8, !tbaa !65
  store i32 %1, ptr %4, align 4, !tbaa !8
  %5 = load ptr, ptr %3, align 8, !tbaa !65
  %6 = getelementptr inbounds nuw %struct.Vec_Int_t_, ptr %5, i32 0, i32 2
  %7 = load ptr, ptr %6, align 8, !tbaa !71
  %8 = load i32, ptr %4, align 4, !tbaa !8
  %9 = sext i32 %8 to i64
  %10 = getelementptr inbounds i32, ptr %7, i64 %9
  %11 = load i32, ptr %10, align 4, !tbaa !8
  ret i32 %11
}

; Function Attrs: inlinehint nounwind uwtable
define internal i32 @lit_var(i32 noundef %0) #2 {
  %2 = alloca i32, align 4
  store i32 %0, ptr %2, align 4, !tbaa !8
  %3 = load i32, ptr %2, align 4, !tbaa !8
  %4 = ashr i32 %3, 1
  ret i32 %4
}

; Function Attrs: nounwind uwtable
define ptr @Abc_NtkMfsInterplateTruth(ptr noundef %0, ptr noundef %1, i32 noundef %2, i32 noundef %3) #0 {
  %5 = alloca ptr, align 8
  %6 = alloca ptr, align 8
  %7 = alloca ptr, align 8
  %8 = alloca i32, align 4
  %9 = alloca i32, align 4
  %10 = alloca ptr, align 8
  %11 = alloca ptr, align 8
  %12 = alloca ptr, align 8
  %13 = alloca i32, align 4
  %14 = alloca i32, align 4
  %15 = alloca i32, align 4
  %16 = alloca i32, align 4
  %17 = alloca ptr, align 8
  %18 = alloca i32, align 4
  store ptr %0, ptr %6, align 8, !tbaa !10
  store ptr %1, ptr %7, align 8, !tbaa !12
  store i32 %2, ptr %8, align 4, !tbaa !8
  store i32 %3, ptr %9, align 4, !tbaa !8
  call void @llvm.lifetime.start.p0(i64 8, ptr %10) #7
  call void @llvm.lifetime.start.p0(i64 8, ptr %11) #7
  store ptr null, ptr %11, align 8, !tbaa !72
  call void @llvm.lifetime.start.p0(i64 8, ptr %12) #7
  call void @llvm.lifetime.start.p0(i64 4, ptr %13) #7
  call void @llvm.lifetime.start.p0(i64 4, ptr %14) #7
  call void @llvm.lifetime.start.p0(i64 4, ptr %15) #7
  call void @llvm.lifetime.start.p0(i64 4, ptr %16) #7
  call void @llvm.lifetime.start.p0(i64 8, ptr %17) #7
  %19 = load ptr, ptr %6, align 8, !tbaa !10
  %20 = load ptr, ptr %7, align 8, !tbaa !12
  %21 = load i32, ptr %8, align 4, !tbaa !8
  %22 = load i32, ptr %9, align 4, !tbaa !8
  %23 = call ptr @Abc_MfsCreateSolverResub(ptr noundef %19, ptr noundef %20, i32 noundef %21, i32 noundef %22)
  store ptr %23, ptr %10, align 8, !tbaa !3
  %24 = load ptr, ptr %10, align 8, !tbaa !3
  %25 = load ptr, ptr %6, align 8, !tbaa !10
  %26 = getelementptr inbounds nuw %struct.Mfs_Man_t_, ptr %25, i32 0, i32 0
  %27 = load ptr, ptr %26, align 8, !tbaa !50
  %28 = getelementptr inbounds nuw %struct.Mfs_Par_t_, ptr %27, i32 0, i32 5
  %29 = load i32, ptr %28, align 4, !tbaa !74
  %30 = sext i32 %29 to i64
  %31 = call i32 @sat_solver_solve(ptr noundef %24, ptr noundef null, ptr noundef null, i64 noundef %30, i64 noundef 0, i64 noundef 0, i64 noundef 0)
  store i32 %31, ptr %14, align 4, !tbaa !8
  %32 = load i32, ptr %14, align 4, !tbaa !8
  %33 = icmp ne i32 %32, -1
  br i1 %33, label %34, label %39

34:                                               ; preds = %4
  %35 = load ptr, ptr %6, align 8, !tbaa !10
  %36 = getelementptr inbounds nuw %struct.Mfs_Man_t_, ptr %35, i32 0, i32 46
  %37 = load i32, ptr %36, align 4, !tbaa !75
  %38 = add nsw i32 %37, 1
  store i32 %38, ptr %36, align 4, !tbaa !75
  store ptr null, ptr %5, align 8
  store i32 1, ptr %18, align 4
  br label %86

39:                                               ; preds = %4
  %40 = load ptr, ptr %10, align 8, !tbaa !3
  %41 = call ptr @sat_solver_store_release(ptr noundef %40)
  store ptr %41, ptr %11, align 8, !tbaa !72
  %42 = load ptr, ptr %10, align 8, !tbaa !3
  call void @sat_solver_delete(ptr noundef %42)
  %43 = load ptr, ptr %6, align 8, !tbaa !10
  %44 = getelementptr inbounds nuw %struct.Mfs_Man_t_, ptr %43, i32 0, i32 25
  %45 = load ptr, ptr %44, align 8, !tbaa !76
  %46 = load i32, ptr %8, align 4, !tbaa !8
  %47 = call ptr @Int_ManSetGlobalVars(ptr noundef %45, i32 noundef %46)
  store ptr %47, ptr %17, align 8, !tbaa !12
  store i32 0, ptr %15, align 4, !tbaa !8
  br label %48

48:                                               ; preds = %75, %39
  %49 = load i32, ptr %15, align 4, !tbaa !8
  %50 = load i32, ptr %8, align 4, !tbaa !8
  %51 = icmp slt i32 %49, %50
  br i1 %51, label %52, label %78

52:                                               ; preds = %48
  %53 = load ptr, ptr %7, align 8, !tbaa !12
  %54 = load i32, ptr %15, align 4, !tbaa !8
  %55 = sext i32 %54 to i64
  %56 = getelementptr inbounds i32, ptr %53, i64 %55
  %57 = load i32, ptr %56, align 4, !tbaa !8
  %58 = call i32 @lit_var(i32 noundef %57)
  %59 = load ptr, ptr %6, align 8, !tbaa !10
  %60 = getelementptr inbounds nuw %struct.Mfs_Man_t_, ptr %59, i32 0, i32 23
  %61 = load ptr, ptr %60, align 8, !tbaa !31
  %62 = getelementptr inbounds nuw %struct.Cnf_Dat_t_, ptr %61, i32 0, i32 1
  %63 = load i32, ptr %62, align 8, !tbaa !46
  %64 = mul nsw i32 2, %63
  %65 = sub nsw i32 %58, %64
  store i32 %65, ptr %16, align 4, !tbaa !8
  %66 = load ptr, ptr %6, align 8, !tbaa !10
  %67 = getelementptr inbounds nuw %struct.Mfs_Man_t_, ptr %66, i32 0, i32 10
  %68 = load ptr, ptr %67, align 8, !tbaa !38
  %69 = load i32, ptr %16, align 4, !tbaa !8
  %70 = call i32 @Vec_IntEntry(ptr noundef %68, i32 noundef %69)
  %71 = load ptr, ptr %17, align 8, !tbaa !12
  %72 = load i32, ptr %15, align 4, !tbaa !8
  %73 = sext i32 %72 to i64
  %74 = getelementptr inbounds i32, ptr %71, i64 %73
  store i32 %70, ptr %74, align 4, !tbaa !8
  br label %75

75:                                               ; preds = %52
  %76 = load i32, ptr %15, align 4, !tbaa !8
  %77 = add nsw i32 %76, 1
  store i32 %77, ptr %15, align 4, !tbaa !8
  br label %48, !llvm.loop !77

78:                                               ; preds = %48
  %79 = load ptr, ptr %6, align 8, !tbaa !10
  %80 = getelementptr inbounds nuw %struct.Mfs_Man_t_, ptr %79, i32 0, i32 25
  %81 = load ptr, ptr %80, align 8, !tbaa !76
  %82 = load ptr, ptr %11, align 8, !tbaa !72
  %83 = call i32 @Int_ManInterpolate(ptr noundef %81, ptr noundef %82, i32 noundef 0, ptr noundef %12)
  store i32 %83, ptr %13, align 4, !tbaa !8
  %84 = load ptr, ptr %11, align 8, !tbaa !72
  call void @Sto_ManFree(ptr noundef %84)
  %85 = load ptr, ptr %12, align 8, !tbaa !12
  store ptr %85, ptr %5, align 8
  store i32 1, ptr %18, align 4
  br label %86

86:                                               ; preds = %78, %34
  call void @llvm.lifetime.end.p0(i64 8, ptr %17) #7
  call void @llvm.lifetime.end.p0(i64 4, ptr %16) #7
  call void @llvm.lifetime.end.p0(i64 4, ptr %15) #7
  call void @llvm.lifetime.end.p0(i64 4, ptr %14) #7
  call void @llvm.lifetime.end.p0(i64 4, ptr %13) #7
  call void @llvm.lifetime.end.p0(i64 8, ptr %12) #7
  call void @llvm.lifetime.end.p0(i64 8, ptr %11) #7
  call void @llvm.lifetime.end.p0(i64 8, ptr %10) #7
  %87 = load ptr, ptr %5, align 8
  ret ptr %87
}