; Function Attrs: nounwind uwtable
define ptr @Abc_NtkMfsInterplateTruth(ptr noundef %0, ptr noundef %1, i32 noundef %2, i32 noundef %3) local_unnamed_addr #0 {
  %5 = alloca ptr, align 8
  call void @llvm.lifetime.start.p0(i64 8, ptr nonnull %5) #5
  %6 = tail call ptr @Abc_MfsCreateSolverResub(ptr noundef %0, ptr noundef %1, i32 noundef %2, i32 noundef %3)
  %7 = load ptr, ptr %0, align 8, !tbaa !54
  %8 = getelementptr inbounds nuw i8, ptr %7, i64 20
  %9 = load i32, ptr %8, align 4, !tbaa !65
  %10 = sext i32 %9 to i64
  %11 = tail call i32 @sat_solver_solve(ptr noundef %6, ptr noundef null, ptr noundef null, i64 noundef %10, i64 noundef 0, i64 noundef 0, i64 noundef 0) #5
  %.not = icmp eq i32 %11, -1
  br i1 %.not, label %16, label %12

12:                                               ; preds = %4
  %13 = getelementptr inbounds nuw i8, ptr %0, i64 788
  %14 = load i32, ptr %13, align 4, !tbaa !66
  %15 = add nsw i32 %14, 1
  store i32 %15, ptr %13, align 4, !tbaa !66
  br label %42

16:                                               ; preds = %4
  %17 = tail call ptr @sat_solver_store_release(ptr noundef %6) #5
  tail call void @sat_solver_delete(ptr noundef %6) #5
  %18 = getelementptr inbounds nuw i8, ptr %0, i64 176
  %19 = load ptr, ptr %18, align 8, !tbaa !67
  %20 = tail call ptr @Int_ManSetGlobalVars(ptr noundef %19, i32 noundef %2) #5
  %21 = icmp sgt i32 %2, 0
  br i1 %21, label %.lr.ph, label %._crit_edge

.lr.ph:                                           ; preds = %16
  %22 = getelementptr inbounds nuw i8, ptr %0, i64 160
  %23 = load ptr, ptr %22, align 8, !tbaa !37
  %24 = getelementptr inbounds nuw i8, ptr %23, i64 8
  %25 = getelementptr inbounds nuw i8, ptr %0, i64 80
  %26 = load ptr, ptr %25, align 8, !tbaa !42
  %27 = getelementptr i8, ptr %26, i64 8
  %.val = load ptr, ptr %27, align 8, !tbaa !46
  %wide.trip.count = zext nneg i32 %2 to i64
  br label %28

28:                                               ; preds = %.lr.ph, %28
  %indvars.iv = phi i64 [ 0, %.lr.ph ], [ %indvars.iv.next, %28 ]
  %29 = getelementptr inbounds nuw i32, ptr %1, i64 %indvars.iv
  %30 = load i32, ptr %29, align 4, !tbaa !3
  %31 = ashr i32 %30, 1
  %32 = load i32, ptr %24, align 8, !tbaa !49
  %33 = shl nsw i32 %32, 1
  %34 = sub nsw i32 %31, %33
  %35 = sext i32 %34 to i64
  %36 = getelementptr inbounds i32, ptr %.val, i64 %35
  %37 = load i32, ptr %36, align 4, !tbaa !3
  %38 = getelementptr inbounds nuw i32, ptr %20, i64 %indvars.iv
  store i32 %37, ptr %38, align 4, !tbaa !3
  %indvars.iv.next = add nuw nsw i64 %indvars.iv, 1
  %exitcond.not = icmp eq i64 %indvars.iv.next, %wide.trip.count
  br i1 %exitcond.not, label %._crit_edge, label %28, !llvm.loop !68

._crit_edge:                                      ; preds = %28, %16
  %39 = load ptr, ptr %18, align 8, !tbaa !67
  %40 = call i32 @Int_ManInterpolate(ptr noundef %39, ptr noundef %17, i32 noundef 0, ptr noundef nonnull %5) #5
  call void @Sto_ManFree(ptr noundef %17) #5
  %41 = load ptr, ptr %5, align 8, !tbaa !52
  br label %42

42:                                               ; preds = %._crit_edge, %12
  %.0 = phi ptr [ null, %12 ], [ %41, %._crit_edge ]
  call void @llvm.lifetime.end.p0(i64 8, ptr nonnull %5) #5
  ret ptr %.0
}